; Function Attrs: mustprogress nounwind uwtable
define internal void @_ZN3tsi12_GLOBAL__N_122BoringSslCachedSessionD2Ev(ptr nocapture noundef nonnull align 8 dereferenceable(16) %this) unnamed_addr #3 align 2 personality ptr @__gxx_personality_v0 {
entry:
  store ptr getelementptr inbounds ({ [5 x ptr] }, ptr @_ZTVN3tsi12_GLOBAL__N_122BoringSslCachedSessionE, i64 0, i32 0, i64 2), ptr %this, align 8
  %session_ = getelementptr inbounds i8, ptr %this, i64 8
  %0 = load ptr, ptr %session_, align 8
  %cmp.not.i = icmp eq ptr %0, null
  br i1 %cmp.not.i, label %_ZNSt10unique_ptrI14ssl_session_stN3tsi17SslSessionDeleterEED2Ev.exit, label %if.then.i

if.then.i:                                        ; preds = %entry
  invoke void @SSL_SESSION_free(ptr noundef nonnull %0)
          to label %_ZNSt10unique_ptrI14ssl_session_stN3tsi17SslSessionDeleterEED2Ev.exit unwind label %terminate.lpad.i

terminate.lpad.i:                                 ; preds = %if.then.i
  %1 = landingpad { ptr, i32 }
          catch ptr null
  %2 = extractvalue { ptr, i32 } %1, 0
  tail call void @__clang_call_terminate(ptr %2) #7
  unreachable

_ZNSt10unique_ptrI14ssl_session_stN3tsi17SslSessionDeleterEED2Ev.exit: ; preds = %entry, %if.then.i
  store ptr null, ptr %session_, align 8
  ret void
}